; Function Attrs: nounwind uwtable
define void @deallocateVecOfIntVec(ptr noundef %0) local_unnamed_addr #5 {
  %.not = icmp eq ptr %0, null
  br i1 %.not, label %16, label %.preheader

.preheader:                                       ; preds = %1
  %2 = getelementptr i8, ptr %0, i64 4
  %.val10 = load i32, ptr %2, align 4, !tbaa !28
  %3 = icmp sgt i32 %.val10, 0
  br i1 %3, label %.lr.ph, label %.critedge

.lr.ph:                                           ; preds = %.preheader
  %4 = getelementptr i8, ptr %0, i64 8
  br label %5

5:                                                ; preds = %.lr.ph, %Vec_IntFree.exit
  %indvars.iv = phi i64 [ 0, %.lr.ph ], [ %indvars.iv.next, %Vec_IntFree.exit ]
  %.val8 = load ptr, ptr %4, align 8, !tbaa !37
  %6 = getelementptr inbounds nuw ptr, ptr %.val8, i64 %indvars.iv
  %7 = load ptr, ptr %6, align 8, !tbaa !38
  %8 = getelementptr inbounds nuw i8, ptr %7, i64 8
  %9 = load ptr, ptr %8, align 8, !tbaa !9
  %.not.i = icmp eq ptr %9, null
  br i1 %.not.i, label %Vec_IntFree.exit, label %10

10:                                               ; preds = %5
  tail call void @free(ptr noundef nonnull %9) #14
  br label %Vec_IntFree.exit

Vec_IntFree.exit:                                 ; preds = %5, %10
  tail call void @free(ptr noundef nonnull %7) #14
  %indvars.iv.next = add nuw nsw i64 %indvars.iv, 1
  %.val = load i32, ptr %2, align 4, !tbaa !28
  %11 = sext i32 %.val to i64
  %12 = icmp slt i64 %indvars.iv.next, %11
  br i1 %12, label %5, label %.critedge, !llvm.loop !91

.critedge:                                        ; preds = %Vec_IntFree.exit, %.preheader
  %13 = getelementptr inbounds nuw i8, ptr %0, i64 8
  %14 = load ptr, ptr %13, align 8, !tbaa !37
  %.not.i9 = icmp eq ptr %14, null
  br i1 %.not.i9, label %Vec_PtrFree.exit, label %15

15:                                               ; preds = %.critedge
  tail call void @free(ptr noundef nonnull %14) #14
  br label %Vec_PtrFree.exit

Vec_PtrFree.exit:                                 ; preds = %.critedge, %15
  tail call void @free(ptr noundef nonnull %0) #14
  br label %16

16:                                               ; preds = %Vec_PtrFree.exit, %1
  ret void
}